target datalayout = "e-m:e-p270:32:32-p271:32:32-p272:64:64-i64:64-i128:128-f80:128-n8:16:32:64-S128"
target triple = "x86_64-pc-linux-gnu"

%"class.llvm::StringRef" = type { ptr, i64 }
%"class.llvm::function_ref" = type { ptr, i64 }
%"struct.llvm::DWARFSection" = type { %"class.llvm::StringRef", i64 }
%"struct.std::_Rb_tree_header" = type { %"struct.std::_Rb_tree_node_base", i64 }
%"struct.std::_Rb_tree_node_base" = type { i32, ptr, ptr, ptr }
%"class.llvm::SmallVectorBase" = type { ptr, i32, i32 }
%"class.llvm::object::SectionRef" = type { %"union.llvm::object::DataRefImpl", ptr }
%"union.llvm::object::DataRefImpl" = type { i64 }
%"class.(anonymous namespace)::DWARFObjInMemory" = type { %"class.llvm::DWARFObject", i8, i8, %"class.llvm::StringRef", ptr, %"class.std::vector.796", %"class.llvm::MapVector", %"class.llvm::MapVector", %"class.llvm::MapVector", %"class.llvm::MapVector", %"struct.(anonymous namespace)::DWARFSectionMap", %"struct.(anonymous namespace)::DWARFSectionMap", %"struct.(anonymous namespace)::DWARFSectionMap", %"struct.(anonymous namespace)::DWARFSectionMap", %"struct.(anonymous namespace)::DWARFSectionMap", %"struct.(anonymous namespace)::DWARFSectionMap", %"struct.(anonymous namespace)::DWARFSectionMap", %"struct.(anonymous namespace)::DWARFSectionMap", %"struct.(anonymous namespace)::DWARFSectionMap", %"struct.(anonymous namespace)::DWARFSectionMap", %"struct.(anonymous namespace)::DWARFSectionMap", %"struct.(anonymous namespace)::DWARFSectionMap", %"struct.(anonymous namespace)::DWARFSectionMap", %"struct.(anonymous namespace)::DWARFSectionMap", %"struct.(anonymous namespace)::DWARFSectionMap", %"struct.(anonymous namespace)::DWARFSectionMap", %"struct.(anonymous namespace)::DWARFSectionMap", %"struct.(anonymous namespace)::DWARFSectionMap", %"struct.(anonymous namespace)::DWARFSectionMap", %"struct.(anonymous namespace)::DWARFSectionMap", %"struct.(anonymous namespace)::DWARFSectionMap", %"struct.(anonymous namespace)::DWARFSectionMap", %"struct.(anonymous namespace)::DWARFSectionMap", %"struct.(anonymous namespace)::DWARFSectionMap", %"struct.(anonymous namespace)::DWARFSectionMap", %"class.llvm::StringRef", %"class.llvm::StringRef", %"class.llvm::StringRef", %"class.llvm::StringRef", %"class.llvm::StringRef", %"class.llvm::StringRef", %"class.llvm::StringRef", %"class.llvm::StringRef", %"class.llvm::StringRef", %"class.llvm::StringRef", %"class.llvm::StringRef", %"class.llvm::StringRef", %"class.std::deque" }
%"class.llvm::DWARFObject" = type { ptr, %"struct.llvm::DWARFSection" }
%"class.std::vector.796" = type { %"struct.std::_Vector_base.797" }
%"struct.std::_Vector_base.797" = type { %"struct.std::_Vector_base<llvm::SectionName, std::allocator<llvm::SectionName>>::_Vector_impl" }
%"struct.std::_Vector_base<llvm::SectionName, std::allocator<llvm::SectionName>>::_Vector_impl" = type { %"struct.std::_Vector_base<llvm::SectionName, std::allocator<llvm::SectionName>>::_Vector_impl_data" }
%"struct.std::_Vector_base<llvm::SectionName, std::allocator<llvm::SectionName>>::_Vector_impl_data" = type { ptr, ptr, ptr }
%"class.llvm::MapVector" = type { %"class.std::map.801", %"class.llvm::SmallVector.807" }
%"class.std::map.801" = type { %"class.std::_Rb_tree.802" }
%"class.std::_Rb_tree.802" = type { %"struct.std::_Rb_tree<llvm::object::SectionRef, std::pair<const llvm::object::SectionRef, unsigned int>, std::_Select1st<std::pair<const llvm::object::SectionRef, unsigned int>>, std::less<llvm::object::SectionRef>>::_Rb_tree_impl" }
%"struct.std::_Rb_tree<llvm::object::SectionRef, std::pair<const llvm::object::SectionRef, unsigned int>, std::_Select1st<std::pair<const llvm::object::SectionRef, unsigned int>>, std::less<llvm::object::SectionRef>>::_Rb_tree_impl" = type { [8 x i8], %"struct.std::_Rb_tree_header" }
%"class.llvm::SmallVector.807" = type { %"class.llvm::SmallVectorImpl.808" }
%"class.llvm::SmallVectorImpl.808" = type { %"class.llvm::SmallVectorTemplateBase.809" }
%"class.llvm::SmallVectorTemplateBase.809" = type { %"class.llvm::SmallVectorTemplateCommon.810" }
%"class.llvm::SmallVectorTemplateCommon.810" = type { %"class.llvm::SmallVectorBase" }
%"struct.(anonymous namespace)::DWARFSectionMap" = type { %"struct.llvm::DWARFSection", %"class.llvm::DenseMap.812" }
%"class.llvm::DenseMap.812" = type <{ ptr, i32, i32, i32, [4 x i8] }>
%"class.std::deque" = type { %"class.std::_Deque_base" }
%"class.std::_Deque_base" = type { %"struct.std::_Deque_base<llvm::SmallString<0>, std::allocator<llvm::SmallString<0>>>::_Deque_impl" }
%"struct.std::_Deque_base<llvm::SmallString<0>, std::allocator<llvm::SmallString<0>>>::_Deque_impl" = type { %"struct.std::_Deque_base<llvm::SmallString<0>, std::allocator<llvm::SmallString<0>>>::_Deque_impl_data" }
%"struct.std::_Deque_base<llvm::SmallString<0>, std::allocator<llvm::SmallString<0>>>::_Deque_impl_data" = type { ptr, i64, %"struct.std::_Deque_iterator", %"struct.std::_Deque_iterator" }
%"struct.std::_Deque_iterator" = type { ptr, ptr, ptr, ptr }
%"struct.std::pair.940" = type { %"class.llvm::object::SectionRef", %"struct.(anonymous namespace)::DWARFSectionMap" }

; Function Attrs: mustprogress nounwind uwtable
define internal noundef ptr @_ZNK4llvm25SmallVectorTemplateCommonISt4pairINS_6object10SectionRefEN12_GLOBAL__N_115DWARFSectionMapEEvE3endEv(ptr noundef nonnull align 8 dereferenceable(16) %0) #0 align 2 {
  %2 = alloca ptr, align 8
  store ptr %0, ptr %2, align 8
  %3 = load ptr, ptr %2, align 8
  %4 = call noundef ptr @_ZNK4llvm25SmallVectorTemplateCommonISt4pairINS_6object10SectionRefEN12_GLOBAL__N_115DWARFSectionMapEEvE5beginEv(ptr noundef nonnull align 8 dereferenceable(16) %3)
  %5 = call noundef i64 @_ZNK4llvm15SmallVectorBaseIjE4sizeEv(ptr noundef nonnull align 8 dereferenceable(16) %3)
  %6 = getelementptr inbounds %"struct.std::pair.940", ptr %4, i64 %5
  ret ptr %6
}

; Function Attrs: mustprogress nounwind uwtable
define internal noundef ptr @_ZNK4llvm25SmallVectorTemplateCommonISt4pairINS_6object10SectionRefEN12_GLOBAL__N_115DWARFSectionMapEEvE5beginEv(ptr noundef nonnull align 8 dereferenceable(16) %0) #0 align 2 {
  %2 = alloca ptr, align 8
  store ptr %0, ptr %2, align 8
  %3 = load ptr, ptr %2, align 8
  %4 = getelementptr inbounds nuw %"class.llvm::SmallVectorBase", ptr %3, i32 0, i32 0
  %5 = load ptr, ptr %4, align 8
  ret ptr %5
}

; Function Attrs: mustprogress nounwind uwtable
define linkonce_odr hidden void @_ZNK4llvm12function_refIFvRKNS_12DWARFSectionEEEclES3_(ptr noundef nonnull align 8 dereferenceable(16) %0, ptr noundef nonnull align 8 dereferenceable(24) %1) #0 comdat align 2 {
  %3 = alloca ptr, align 8
  %4 = alloca ptr, align 8
  store ptr %0, ptr %3, align 8
  store ptr %1, ptr %4, align 8
  %5 = load ptr, ptr %3, align 8
  %6 = getelementptr inbounds nuw %"class.llvm::function_ref", ptr %5, i32 0, i32 0
  %7 = load ptr, ptr %6, align 8
  %8 = getelementptr inbounds nuw %"class.llvm::function_ref", ptr %5, i32 0, i32 1
  %9 = load i64, ptr %8, align 8
  %10 = load ptr, ptr %4, align 8
  call void %7(i64 noundef %9, ptr noundef nonnull align 8 dereferenceable(24) %10)
  ret void
}

; Function Attrs: mustprogress nounwind uwtable
define internal noundef ptr @_ZNK4llvm9MapVectorINS_6object10SectionRefEN12_GLOBAL__N_115DWARFSectionMapESt3mapIS2_jSt4lessIS2_ESaISt4pairIKS2_jEEENS_11SmallVectorIS8_IS2_S4_ELj0EEEE3endEv(ptr noundef nonnull align 8 dereferenceable(64) %0) #0 align 2 {
  %2 = alloca ptr, align 8
  store ptr %0, ptr %2, align 8
  %3 = load ptr, ptr %2, align 8
  %4 = getelementptr inbounds nuw %"class.llvm::MapVector", ptr %3, i32 0, i32 1
  %5 = call noundef ptr @_ZNK4llvm25SmallVectorTemplateCommonISt4pairINS_6object10SectionRefEN12_GLOBAL__N_115DWARFSectionMapEEvE3endEv(ptr noundef nonnull align 8 dereferenceable(16) %4)
  ret ptr %5
}

; Function Attrs: mustprogress nounwind uwtable
define internal noundef ptr @_ZNK4llvm9MapVectorINS_6object10SectionRefEN12_GLOBAL__N_115DWARFSectionMapESt3mapIS2_jSt4lessIS2_ESaISt4pairIKS2_jEEENS_11SmallVectorIS8_IS2_S4_ELj0EEEE5beginEv(ptr noundef nonnull align 8 dereferenceable(64) %0) #0 align 2 {
  %2 = alloca ptr, align 8
  store ptr %0, ptr %2, align 8
  %3 = load ptr, ptr %2, align 8
  %4 = getelementptr inbounds nuw %"class.llvm::MapVector", ptr %3, i32 0, i32 1
  %5 = call noundef ptr @_ZNK4llvm25SmallVectorTemplateCommonISt4pairINS_6object10SectionRefEN12_GLOBAL__N_115DWARFSectionMapEEvE5beginEv(ptr noundef nonnull align 8 dereferenceable(16) %4)
  ret ptr %5
}

; Function Attrs: mustprogress nounwind uwtable
define internal void @_ZNK12_GLOBAL__N_116DWARFObjInMemory19forEachInfoSectionsEN4llvm12function_refIFvRKNS1_12DWARFSectionEEEE(ptr noundef nonnull align 8 dereferenceable(1816) %0, ptr %1, i64 %2) unnamed_addr #0 align 2 {
  %4 = alloca %"class.llvm::function_ref", align 8
  %5 = alloca ptr, align 8
  %6 = alloca ptr, align 8
  %7 = alloca ptr, align 8
  %8 = alloca ptr, align 8
  %9 = alloca ptr, align 8
  %10 = getelementptr inbounds nuw { ptr, i64 }, ptr %4, i32 0, i32 0
  store ptr %1, ptr %10, align 8
  %11 = getelementptr inbounds nuw { ptr, i64 }, ptr %4, i32 0, i32 1
  store i64 %2, ptr %11, align 8
  store ptr %0, ptr %5, align 8
  %12 = load ptr, ptr %5, align 8
  %13 = getelementptr inbounds nuw %"class.(anonymous namespace)::DWARFObjInMemory", ptr %12, i32 0, i32 6
  store ptr %13, ptr %6, align 8
  %14 = load ptr, ptr %6, align 8
  %15 = call noundef ptr @_ZNK4llvm9MapVectorINS_6object10SectionRefEN12_GLOBAL__N_115DWARFSectionMapESt3mapIS2_jSt4lessIS2_ESaISt4pairIKS2_jEEENS_11SmallVectorIS8_IS2_S4_ELj0EEEE5beginEv(ptr noundef nonnull align 8 dereferenceable(64) %14)
  store ptr %15, ptr %7, align 8
  %16 = load ptr, ptr %6, align 8
  %17 = call noundef ptr @_ZNK4llvm9MapVectorINS_6object10SectionRefEN12_GLOBAL__N_115DWARFSectionMapESt3mapIS2_jSt4lessIS2_ESaISt4pairIKS2_jEEENS_11SmallVectorIS8_IS2_S4_ELj0EEEE3endEv(ptr noundef nonnull align 8 dereferenceable(64) %16)
  store ptr %17, ptr %8, align 8
  br label %18

18:                                               ; preds = %26, %3
  %19 = load ptr, ptr %7, align 8
  %20 = load ptr, ptr %8, align 8
  %21 = icmp ne ptr %19, %20
  br i1 %21, label %22, label %29

22:                                               ; preds = %18
  %23 = load ptr, ptr %7, align 8
  store ptr %23, ptr %9, align 8
  %24 = load ptr, ptr %9, align 8
  %25 = getelementptr inbounds nuw %"struct.std::pair.940", ptr %24, i32 0, i32 1
  call void @_ZNK4llvm12function_refIFvRKNS_12DWARFSectionEEEclES3_(ptr noundef nonnull align 8 dereferenceable(16) %4, ptr noundef nonnull align 8 dereferenceable(24) %25)
  br label %26

26:                                               ; preds = %22
  %27 = load ptr, ptr %7, align 8
  %28 = getelementptr inbounds %"struct.std::pair.940", ptr %27, i32 1
  store ptr %28, ptr %7, align 8
  br label %18

29:                                               ; preds = %18
  ret void
}