; Function Attrs: mustprogress nounwind uwtable
define internal void @_ZNK12_GLOBAL__N_116DWARFObjInMemory19forEachInfoSectionsEN4llvm12function_refIFvRKNS1_12DWARFSectionEEEE(ptr noundef nonnull align 8 dereferenceable(1816) %0, ptr nocapture readonly %1, i64 %2) unnamed_addr #0 align 2 {
  %4 = getelementptr inbounds i8, ptr %0, i64 136
  %.val = load ptr, ptr %4, align 8
  %5 = tail call noundef i64 @_ZNK4llvm15SmallVectorBaseIjE4sizeEv(ptr noundef nonnull align 8 dereferenceable(16) %4) #24
  %6 = getelementptr inbounds %"struct.std::pair.940", ptr %.val, i64 %5
  %.not8 = icmp eq i64 %5, 0
  br i1 %.not8, label %._crit_edge, label %.lr.ph

.lr.ph:                                           ; preds = %3, %.lr.ph
  %.09 = phi ptr [ %8, %.lr.ph ], [ %.val, %3 ]
  %7 = getelementptr inbounds nuw i8, ptr %.09, i64 16
  tail call void %1(i64 noundef %2, ptr noundef nonnull align 8 dereferenceable(24) %7) #24
  %8 = getelementptr inbounds i8, ptr %.09, i64 64
  %.not = icmp eq ptr %8, %6
  br i1 %.not, label %._crit_edge, label %.lr.ph

._crit_edge:                                      ; preds = %.lr.ph, %3
  ret void
}